target datalayout = "e-m:e-p270:32:32-p271:32:32-p272:64:64-i64:64-i128:128-f80:128-n8:16:32:64-S128"
target triple = "x86_64-pc-linux-gnu"

%"class.std::__cxx11::basic_string" = type { %"struct.std::__cxx11::basic_string<char>::_Alloc_hider", i64, %union.anon }
%"struct.std::__cxx11::basic_string<char>::_Alloc_hider" = type { ptr }
%union.anon = type { i64, [8 x i8] }
%"class.std::allocator" = type { i8 }

@.str = private unnamed_addr constant [41 x i8] c"OpenCV was build without DirectX support\00", align 1
@.str.1 = private unnamed_addr constant [120 x i8] c"generated/home/dtcxzyw/WorkSpace/Projects/compilers/llvm-opt-benchmark/bench/opencv/opencv/modules/core/src/directx.cpp\00", align 1
@__func__._ZN2cv7directx25convertFromD3D11Texture2DEP15ID3D11Texture2DRKNS_12_OutputArrayE = private unnamed_addr constant [26 x i8] c"convertFromD3D11Texture2D\00", align 1

; Function Attrs: mustprogress uwtable
define void @_ZN2cv7directx25convertFromD3D11Texture2DEP15ID3D11Texture2DRKNS_12_OutputArrayE(ptr noundef %0, ptr noundef nonnull align 8 dereferenceable(24) %1) #0 personality ptr @__gxx_personality_v0 {
  %3 = alloca ptr, align 8
  %4 = alloca ptr, align 8
  %5 = alloca %"class.std::__cxx11::basic_string", align 8
  %6 = alloca %"class.std::allocator", align 1
  %7 = alloca ptr, align 8
  %8 = alloca i32, align 4
  store ptr %0, ptr %3, align 8
  store ptr %1, ptr %4, align 8
  call void @_ZNSaIcEC1Ev(ptr noundef nonnull align 1 dereferenceable(1) %6) #4
  invoke void @_ZNSt7__cxx1112basic_stringIcSt11char_traitsIcESaIcEEC1EPKcRKS3_(ptr noundef nonnull align 8 dereferenceable(32) %5, ptr noundef @.str, ptr noundef nonnull align 1 dereferenceable(1) %6)
          to label %9 unwind label %11

9:                                                ; preds = %2
  invoke void @_ZN2cv5errorEiRKNSt7__cxx1112basic_stringIcSt11char_traitsIcESaIcEEEPKcS9_i(i32 noundef -6, ptr noundef nonnull align 8 dereferenceable(32) %5, ptr noundef @__func__._ZN2cv7directx25convertFromD3D11Texture2DEP15ID3D11Texture2DRKNS_12_OutputArrayE, ptr noundef @.str.1, i32 noundef 1378) #5
          to label %10 unwind label %15

10:                                               ; preds = %9
  unreachable

11:                                               ; preds = %2
  %12 = landingpad { ptr, i32 }
          cleanup
  %13 = extractvalue { ptr, i32 } %12, 0
  store ptr %13, ptr %7, align 8
  %14 = extractvalue { ptr, i32 } %12, 1
  store i32 %14, ptr %8, align 4
  br label %19

15:                                               ; preds = %9
  %16 = landingpad { ptr, i32 }
          cleanup
  %17 = extractvalue { ptr, i32 } %16, 0
  store ptr %17, ptr %7, align 8
  %18 = extractvalue { ptr, i32 } %16, 1
  store i32 %18, ptr %8, align 4
  call void @_ZNSt7__cxx1112basic_stringIcSt11char_traitsIcESaIcEED1Ev(ptr noundef nonnull align 8 dereferenceable(32) %5) #4
  br label %19

19:                                               ; preds = %15, %11
  call void @_ZNSaIcED1Ev(ptr noundef nonnull align 1 dereferenceable(1) %6) #4
  br label %20

20:                                               ; preds = %19
  %21 = load ptr, ptr %7, align 8
  %22 = load i32, ptr %8, align 4
  %23 = insertvalue { ptr, i32 } poison, ptr %21, 0
  %24 = insertvalue { ptr, i32 } %23, i32 %22, 1
  resume { ptr, i32 } %24
}